target datalayout = "e-m:e-p270:32:32-p271:32:32-p272:64:64-i64:64-i128:128-f80:128-n8:16:32:64-S128"
target triple = "x86_64-pc-linux-gnu"

@_ZN2os5Linux16_numa_move_pagesE = hidden global ptr null, align 8

; Function Attrs: mustprogress nounwind uwtable
define linkonce_odr hidden noundef i64 @_ZN2os5Linux15numa_move_pagesEimPPvPKiPii(i32 noundef %0, i64 noundef %1, ptr noundef %2, ptr noundef %3, ptr noundef %4, i32 noundef %5) #1 comdat align 2 {
  %7 = alloca i32, align 4
  %8 = alloca i64, align 8
  %9 = alloca ptr, align 8
  %10 = alloca ptr, align 8
  %11 = alloca ptr, align 8
  %12 = alloca i32, align 4
  store i32 %0, ptr %7, align 4
  store i64 %1, ptr %8, align 8
  store ptr %2, ptr %9, align 8
  store ptr %3, ptr %10, align 8
  store ptr %4, ptr %11, align 8
  store i32 %5, ptr %12, align 4
  %13 = load ptr, ptr @_ZN2os5Linux16_numa_move_pagesE, align 8
  %14 = icmp ne ptr %13, null
  br i1 %14, label %15, label %24

15:                                               ; preds = %6
  %16 = load ptr, ptr @_ZN2os5Linux16_numa_move_pagesE, align 8
  %17 = load i32, ptr %7, align 4
  %18 = load i64, ptr %8, align 8
  %19 = load ptr, ptr %9, align 8
  %20 = load ptr, ptr %10, align 8
  %21 = load ptr, ptr %11, align 8
  %22 = load i32, ptr %12, align 4
  %23 = call noundef i64 %16(i32 noundef %17, i64 noundef %18, ptr noundef %19, ptr noundef %20, ptr noundef %21, i32 noundef %22)
  br label %25

24:                                               ; preds = %6
  br label %25

25:                                               ; preds = %24, %15
  %26 = phi i64 [ %23, %15 ], [ -1, %24 ]
  ret i64 %26
}

; Function Attrs: mustprogress nounwind uwtable
define hidden noundef zeroext i1 @_ZN2os28numa_get_group_ids_for_rangeEPPKvPim(ptr noundef %0, ptr noundef %1, i64 noundef %2) #1 align 2 {
  %4 = alloca ptr, align 8
  %5 = alloca ptr, align 8
  %6 = alloca i64, align 8
  %7 = alloca ptr, align 8
  store ptr %0, ptr %4, align 8
  store ptr %1, ptr %5, align 8
  store i64 %2, ptr %6, align 8
  %8 = load ptr, ptr %4, align 8
  store ptr %8, ptr %7, align 8
  %9 = load i64, ptr %6, align 8
  %10 = load ptr, ptr %7, align 8
  %11 = load ptr, ptr %5, align 8
  %12 = call noundef i64 @_ZN2os5Linux15numa_move_pagesEimPPvPKiPii(i32 noundef 0, i64 noundef %9, ptr noundef %10, ptr noundef null, ptr noundef %11, i32 noundef 0)
  %13 = icmp eq i64 %12, 0
  ret i1 %13
}