; Function Attrs: mustprogress nounwind uwtable
define hidden noundef zeroext i1 @_ZN2os28numa_get_group_ids_for_rangeEPPKvPim(ptr noundef %0, ptr noundef %1, i64 noundef %2) local_unnamed_addr #0 align 2 {
  %4 = load ptr, ptr @_ZN2os5Linux16_numa_move_pagesE, align 8
  %.not.i = icmp eq ptr %4, null
  br i1 %.not.i, label %_ZN2os5Linux15numa_move_pagesEimPPvPKiPii.exit, label %5

5:                                                ; preds = %3
  %6 = tail call noundef i64 %4(i32 noundef 0, i64 noundef %2, ptr noundef %0, ptr noundef null, ptr noundef %1, i32 noundef 0) #26
  %7 = icmp eq i64 %6, 0
  br label %_ZN2os5Linux15numa_move_pagesEimPPvPKiPii.exit

_ZN2os5Linux15numa_move_pagesEimPPvPKiPii.exit:   ; preds = %3, %5
  %8 = phi i1 [ %7, %5 ], [ false, %3 ]
  ret i1 %8
}